(lp0
(dp1
S'\x83'
p2
I74
sS'\x87'
p3
I78
sS'\x8b'
p4
I82
sS'\x8f'
p5
I86
sS'\x93'
p6
I90
sS'\x97'
p7
I92
sS'\x9b'
p8
I96
sS'\x9f'
p9
I100
sS' '
p10
I2
sS'\xa3'
p11
I104
sS'$'
p12
I6
sS'\xa7'
p13
I108
sS'('
p14
I10
sS'\xab'
p15
I112
sS','
p16
I14
sS'\xaf'
p17
I116
sS'0'
p18
I18
sS'\xb3'
p19
I120
sS'4'
p20
I22
sS'\xb7'
p21
I124
sS'8'
p22
I26
sS'\xbb'
p23
I128
sS'<'
p24
I30
sS'\xbf'
p25
I132
sS'@'
p26
I34
sS'\xc3'
p27
I134
sS'\xcb'
p28
I137
sS'\\'
p29
I36
sS'`'
p30
I40
sS'd'
p31
I44
sS'h'
p32
I48
sS'l'
p33
I52
sS'p'
p34
I56
sS't'
p35
I60
sS'x'
p36
I64
sS'|'
p37
I68
sS'\x80'
p38
I72
sS'\x84'
p39
I75
sS'\x88'
p40
I79
sS'\x8c'
p41
I83
sS'\x90'
p42
I87
sS'\x94'
p43
I91
sS'\x98'
p44
I93
sS'\x9c'
p45
I97
sS'\xa0'
p46
I101
sS'#'
p47
I5
sS'\xa4'
p48
I105
sS"'"
p49
I9
sS'\xa8'
p50
I109
sS'+'
p51
I13
sS'\xac'
p52
I113
sS'/'
p53
I17
sS'\xb0'
p54
I117
sS'3'
p55
I21
sS'\xb4'
p56
I121
sS'7'
p57
I25
sS'\xb8'
p58
I125
sS';'
p59
I29
sS'\xbc'
p60
I129
sS'?'
p61
I33
sS'['
p62
I35
sS'_'
p63
I39
sS'c'
p64
I43
sS'g'
p65
I47
sS'k'
p66
I51
sS'o'
p67
I55
sS's'
p68
I59
sS'w'
p69
I63
sS'{'
p70
I67
sS'\x7f'
p71
I71
sS'\x85'
p72
I76
sS'\x89'
p73
I80
sS'\n'
p74
I1
sS'\x8d'
p75
I84
sS'\x91'
p76
I88
sS'\x99'
p77
I94
sS'\x9d'
p78
I98
sS'\xa1'
p79
I102
sS'"'
p80
I4
sS'\xa5'
p81
I106
sS'&'
p82
I8
sS'\xa9'
p83
I110
sS'*'
p84
I12
sS'\xad'
p85
I114
sS'.'
p86
I16
sS'\xb1'
p87
I118
sS'2'
p88
I20
sS'\xb5'
p89
I122
sS'6'
p90
I24
sS'\xb9'
p91
I126
sS':'
p92
I28
sS'\xbd'
p93
I130
sS'>'
p94
I32
sS'\xc5'
p95
I135
sS'^'
p96
I38
sS'b'
p97
I42
sS'f'
p98
I46
sS'j'
p99
I50
sS'n'
p100
I54
sS'r'
p101
I58
sS'v'
p102
I62
sS'z'
p103
I66
sS'~'
p104
I70
sS'\x82'
p105
I73
sS'\x86'
p106
I77
sS'\t'
p107
I0
sS'\x8a'
p108
I81
sS'\x8e'
p109
I85
sS'\x92'
p110
I89
sS'\x9a'
p111
I95
sS'\x9e'
p112
I99
sS'!'
p113
I3
sS'\xa2'
p114
I103
sS'%'
p115
I7
sS'\xa6'
p116
I107
sS')'
p117
I11
sS'\xaa'
p118
I111
sS'-'
p119
I15
sS'\xae'
p120
I115
sS'1'
p121
I19
sS'\xb2'
p122
I119
sS'5'
p123
I23
sS'\xb6'
p124
I123
sS'9'
p125
I27
sS'\xba'
p126
I127
sS'='
p127
I31
sS'\xbe'
p128
I131
sS'\xc2'
p129
I133
sS'\xc6'
p130
I136
sS']'
p131
I37
sS'a'
p132
I41
sS'\xe2'
p133
I138
sS'e'
p134
I45
sS'i'
p135
I49
sS'm'
p136
I53
sS'q'
p137
I57
sS'u'
p138
I61
sS'y'
p139
I65
sS'}'
p140
I69
saI150
a.